target datalayout = "e-m:e-p270:32:32-p271:32:32-p272:64:64-i64:64-i128:128-f80:128-n8:16:32:64-S128"
target triple = "x86_64-unknown-linux-gnu"

%struct.TPMEmulator = type { %struct.TPMBackend, ptr, %struct.CharBackend, ptr, i32, i64, i8, ptr, %struct.QemuMutex, i8, %struct.TPMBlobBuffers, i8, ptr }
%struct.TPMBackend = type { %struct.Object, ptr, i8, i8, ptr, ptr, %struct.anon }
%struct.Object = type { ptr, ptr, ptr, i32, ptr }
%struct.anon = type { ptr, ptr }
%struct.CharBackend = type { ptr, ptr, ptr, ptr, ptr, ptr, i32, i32 }
%struct.QemuMutex = type { %union.pthread_mutex_t, i8 }
%union.pthread_mutex_t = type { %struct.__pthread_mutex_s }
%struct.__pthread_mutex_s = type { i32, i32, i32, i32, i32, i16, i16, %struct.__pthread_internal_list }
%struct.__pthread_internal_list = type { ptr, ptr }
%struct.TPMBlobBuffers = type { i32, %struct.TPMSizedBuffer, i32, %struct.TPMSizedBuffer, i32, %struct.TPMSizedBuffer }
%struct.TPMSizedBuffer = type { i32, ptr }

@.str.93 = private unnamed_addr constant [4 x i8] c"1.2\00", align 1
@.str.94 = private unnamed_addr constant [2 x i8] c"2\00", align 1
@.str.95 = private unnamed_addr constant [43 x i8] c"tpm-emulator: TPM version has not been set\00", align 1
@.str.96 = private unnamed_addr constant [92 x i8] c"tpm-emulator: TPM does not implement minimum set of required capabilities for TPM %s (0x%x)\00", align 1

; Function Attrs: nounwind sspstrong uwtable
define internal i32 @tpm_emulator_check_caps(ptr noundef %tpm_emu) #0 {
entry:
  %retval = alloca i32, align 4
  %tpm_emu.addr = alloca ptr, align 8
  %caps = alloca i64, align 8
  %tpm = alloca ptr, align 8
  store ptr %tpm_emu, ptr %tpm_emu.addr, align 8
  store i64 0, ptr %caps, align 8
  store ptr null, ptr %tpm, align 8
  %0 = load ptr, ptr %tpm_emu.addr, align 8
  %tpm_version = getelementptr inbounds %struct.TPMEmulator, ptr %0, i32 0, i32 4
  %1 = load i32, ptr %tpm_version, align 8
  switch i32 %1, label %sw.epilog [
    i32 1, label %sw.bb
    i32 2, label %sw.bb1
    i32 0, label %sw.bb2
  ]

sw.bb:                                            ; preds = %entry
  store i64 13327, ptr %caps, align 8
  store ptr @.str.93, ptr %tpm, align 8
  br label %sw.epilog

sw.bb1:                                           ; preds = %entry
  store i64 13455, ptr %caps, align 8
  store ptr @.str.94, ptr %tpm, align 8
  br label %sw.epilog

sw.bb2:                                           ; preds = %entry
  call void (ptr, ...) @error_report(ptr noundef @.str.95)
  store i32 -1, ptr %retval, align 4
  br label %return

sw.epilog:                                        ; preds = %sw.bb1, %sw.bb, %entry
  %2 = load ptr, ptr %tpm_emu.addr, align 8
  %caps3 = getelementptr inbounds %struct.TPMEmulator, ptr %2, i32 0, i32 5
  %3 = load i64, ptr %caps3, align 8
  %4 = load i64, ptr %caps, align 8
  %and = and i64 %3, %4
  %5 = load i64, ptr %caps, align 8
  %cmp = icmp eq i64 %and, %5
  br i1 %cmp, label %if.end, label %if.then

if.then:                                          ; preds = %sw.epilog
  %6 = load ptr, ptr %tpm, align 8
  %7 = load i64, ptr %caps, align 8
  %conv = trunc i64 %7 to i32
  call void (ptr, ...) @error_report(ptr noundef @.str.96, ptr noundef %6, i32 noundef %conv)
  store i32 -1, ptr %retval, align 4
  br label %return

if.end:                                           ; preds = %sw.epilog
  store i32 0, ptr %retval, align 4
  br label %return

return:                                           ; preds = %if.end, %if.then, %sw.bb2
  %8 = load i32, ptr %retval, align 4
  ret i32 %8
}