; Function Attrs: nounwind sspstrong uwtable
define internal fastcc range(i32 -1, 1) i32 @tpm_emulator_check_caps(ptr noundef readonly captures(none) %tpm_emu) unnamed_addr #0 {
entry:
  %tpm_version = getelementptr inbounds nuw i8, ptr %tpm_emu, i64 160
  %0 = load i32, ptr %tpm_version, align 8
  switch i32 %0, label %sw.epilog [
    i32 1, label %sw.bb
    i32 2, label %sw.bb1
    i32 0, label %sw.bb2
  ]

sw.bb:                                            ; preds = %entry
  br label %sw.epilog

sw.bb1:                                           ; preds = %entry
  br label %sw.epilog

sw.bb2:                                           ; preds = %entry
  tail call void (ptr, ...) @error_report(ptr noundef nonnull @.str.95) #12
  br label %return

sw.epilog:                                        ; preds = %sw.bb1, %sw.bb, %entry
  %caps.0 = phi i64 [ 0, %entry ], [ 13455, %sw.bb1 ], [ 13327, %sw.bb ]
  %tpm.0 = phi ptr [ null, %entry ], [ @.str.94, %sw.bb1 ], [ @.str.93, %sw.bb ]
  %caps3 = getelementptr inbounds nuw i8, ptr %tpm_emu, i64 168
  %1 = load i64, ptr %caps3, align 8
  %and = and i64 %1, %caps.0
  %cmp = icmp eq i64 %and, %caps.0
  br i1 %cmp, label %return, label %if.then

if.then:                                          ; preds = %sw.epilog
  %conv = trunc nuw nsw i64 %caps.0 to i32
  tail call void (ptr, ...) @error_report(ptr noundef nonnull @.str.96, ptr noundef %tpm.0, i32 noundef %conv) #12
  br label %return

return:                                           ; preds = %sw.epilog, %if.then, %sw.bb2
  %retval.0 = phi i32 [ -1, %if.then ], [ -1, %sw.bb2 ], [ 0, %sw.epilog ]
  ret i32 %retval.0
}